target datalayout = "e-m:e-p270:32:32-p271:32:32-p272:64:64-i64:64-i128:128-f80:128-n8:16:32:64-S128"
target triple = "x86_64-pc-linux-gnu"

%"class.ue2::graph_detail::vertex_descriptor.69" = type { ptr, i64 }
%"class.ue2::graph_detail::edge_descriptor" = type { ptr, i64 }
%"class.std::shared_ptr.39" = type { %"class.std::__shared_ptr.40" }
%"class.std::__shared_ptr.40" = type { ptr, %"class.std::__shared_count" }
%"class.std::__shared_count" = type { ptr }
%"struct.ue2::RoseInEdgeProps" = type { i32, i32, %"class.std::shared_ptr", %"class.std::shared_ptr.36", %"class.std::shared_ptr.39", i32, i64 }
%"class.std::shared_ptr" = type { %"class.std::__shared_ptr" }
%"class.std::__shared_ptr" = type { ptr, %"class.std::__shared_count" }
%"class.std::shared_ptr.36" = type { %"class.std::__shared_ptr.37" }
%"class.std::__shared_ptr.37" = type { ptr, %"class.std::__shared_count" }
%"struct.ue2::ue2_graph<ue2::RoseInGraph, ue2::RoseInVertexProps, ue2::RoseInEdgeProps>::edge_node" = type { %"class.boost::intrusive::list_base_hook.182", %"class.boost::intrusive::list_base_hook.186", ptr, ptr, i64, %"struct.ue2::RoseInEdgeProps" }
%"class.boost::intrusive::list_base_hook.182" = type { %"class.boost::intrusive::generic_hook.183" }
%"class.boost::intrusive::generic_hook.183" = type { %"struct.boost::intrusive::node_holder.184" }
%"struct.boost::intrusive::node_holder.184" = type { %"struct.boost::intrusive::list_node" }
%"struct.boost::intrusive::list_node" = type { ptr, ptr }
%"class.boost::intrusive::list_base_hook.186" = type { %"class.boost::intrusive::generic_hook.187" }
%"class.boost::intrusive::generic_hook.187" = type { %"struct.boost::intrusive::node_holder.188" }
%"struct.boost::intrusive::node_holder.188" = type { %"struct.boost::intrusive::list_node" }
%"struct.ue2::RoseInVertexProps" = type { i32, %"struct.ue2::ue2_literal", i32, [4 x i8], %"class.ue2::flat_set", i32, i32, i64 }
%"struct.ue2::ue2_literal" = type { %"class.std::__cxx11::basic_string", %"class.boost::dynamic_bitset" }
%"class.std::__cxx11::basic_string" = type { %"struct.std::__cxx11::basic_string<char>::_Alloc_hider", i64, %union.anon }
%"struct.std::__cxx11::basic_string<char>::_Alloc_hider" = type { ptr }
%union.anon = type { i64, [8 x i8] }
%"class.boost::dynamic_bitset" = type { %"class.std::vector.75", i64 }
%"class.std::vector.75" = type { %"struct.std::_Vector_base.76" }
%"struct.std::_Vector_base.76" = type { %"struct.std::_Vector_base<unsigned long, std::allocator<unsigned long>>::_Vector_impl" }
%"struct.std::_Vector_base<unsigned long, std::allocator<unsigned long>>::_Vector_impl" = type { %"struct.std::_Vector_base<unsigned long, std::allocator<unsigned long>>::_Vector_impl_data" }
%"struct.std::_Vector_base<unsigned long, std::allocator<unsigned long>>::_Vector_impl_data" = type { ptr, ptr, ptr }
%"class.ue2::flat_set" = type { %"class.ue2::flat_detail::flat_base" }
%"class.ue2::flat_detail::flat_base" = type { %"class.std::tuple.80" }
%"class.std::tuple.80" = type { %"struct.std::_Tuple_impl.81" }
%"struct.std::_Tuple_impl.81" = type { %"struct.std::_Head_base.84" }
%"struct.std::_Head_base.84" = type { %"class.boost::container::small_vector" }
%"class.boost::container::small_vector" = type { %"class.boost::container::small_vector_base.base", [4 x i8] }
%"class.boost::container::small_vector_base.base" = type <{ %"class.boost::container::vector", %"union.boost::move_detail::aligned_struct_wrapper" }>
%"class.boost::container::vector" = type { %"struct.boost::container::vector_alloc_holder" }
%"struct.boost::container::vector_alloc_holder" = type { ptr, i64, i64 }
%"union.boost::move_detail::aligned_struct_wrapper" = type { %"struct.boost::move_detail::aligned_struct" }
%"struct.boost::move_detail::aligned_struct" = type { [4 x i8] }
%"struct.ue2::ue2_graph<ue2::RoseInGraph, ue2::RoseInVertexProps, ue2::RoseInEdgeProps>::vertex_node" = type { %"class.boost::intrusive::list_base_hook", %"struct.ue2::RoseInVertexProps", i64, %"class.boost::intrusive::list.137", %"class.boost::intrusive::list.141" }
%"class.boost::intrusive::list_base_hook" = type { %"class.boost::intrusive::generic_hook" }
%"class.boost::intrusive::generic_hook" = type { %"struct.boost::intrusive::node_holder" }
%"struct.boost::intrusive::node_holder" = type { %"struct.boost::intrusive::list_node" }
%"class.boost::intrusive::list.137" = type { %"class.boost::intrusive::list_impl.138" }
%"class.boost::intrusive::list_impl.138" = type { %"struct.boost::intrusive::list_impl<boost::intrusive::bhtraits<ue2::ue2_graph<ue2::RoseInGraph, ue2::RoseInVertexProps, ue2::RoseInEdgeProps>::edge_node, boost::intrusive::list_node_traits<void *>, boost::intrusive::normal_link, ue2::ue2_graph<ue2::RoseInGraph, ue2::RoseInVertexProps, ue2::RoseInEdgeProps>::in_edge_tag, 1>, unsigned long, true, void>::data_t" }
%"struct.boost::intrusive::list_impl<boost::intrusive::bhtraits<ue2::ue2_graph<ue2::RoseInGraph, ue2::RoseInVertexProps, ue2::RoseInEdgeProps>::edge_node, boost::intrusive::list_node_traits<void *>, boost::intrusive::normal_link, ue2::ue2_graph<ue2::RoseInGraph, ue2::RoseInVertexProps, ue2::RoseInEdgeProps>::in_edge_tag, 1>, unsigned long, true, void>::data_t" = type { %"struct.boost::intrusive::list_impl<boost::intrusive::bhtraits<ue2::ue2_graph<ue2::RoseInGraph, ue2::RoseInVertexProps, ue2::RoseInEdgeProps>::edge_node, boost::intrusive::list_node_traits<void *>, boost::intrusive::normal_link, ue2::ue2_graph<ue2::RoseInGraph, ue2::RoseInVertexProps, ue2::RoseInEdgeProps>::in_edge_tag, 1>, unsigned long, true, void>::root_plus_size" }
%"struct.boost::intrusive::list_impl<boost::intrusive::bhtraits<ue2::ue2_graph<ue2::RoseInGraph, ue2::RoseInVertexProps, ue2::RoseInEdgeProps>::edge_node, boost::intrusive::list_node_traits<void *>, boost::intrusive::normal_link, ue2::ue2_graph<ue2::RoseInGraph, ue2::RoseInVertexProps, ue2::RoseInEdgeProps>::in_edge_tag, 1>, unsigned long, true, void>::root_plus_size" = type { %"struct.boost::intrusive::detail::size_holder", %"struct.boost::intrusive::detail::default_header_holder" }
%"struct.boost::intrusive::detail::size_holder" = type { i64 }
%"struct.boost::intrusive::detail::default_header_holder" = type { %"struct.boost::intrusive::list_node" }
%"class.boost::intrusive::list.141" = type { %"class.boost::intrusive::list_impl.142" }
%"class.boost::intrusive::list_impl.142" = type { %"struct.boost::intrusive::list_impl<boost::intrusive::bhtraits<ue2::ue2_graph<ue2::RoseInGraph, ue2::RoseInVertexProps, ue2::RoseInEdgeProps>::edge_node, boost::intrusive::list_node_traits<void *>, boost::intrusive::safe_link, ue2::ue2_graph<ue2::RoseInGraph, ue2::RoseInVertexProps, ue2::RoseInEdgeProps>::out_edge_tag, 1>, unsigned long, true, void>::data_t" }
%"struct.boost::intrusive::list_impl<boost::intrusive::bhtraits<ue2::ue2_graph<ue2::RoseInGraph, ue2::RoseInVertexProps, ue2::RoseInEdgeProps>::edge_node, boost::intrusive::list_node_traits<void *>, boost::intrusive::safe_link, ue2::ue2_graph<ue2::RoseInGraph, ue2::RoseInVertexProps, ue2::RoseInEdgeProps>::out_edge_tag, 1>, unsigned long, true, void>::data_t" = type { %"struct.boost::intrusive::list_impl<boost::intrusive::bhtraits<ue2::ue2_graph<ue2::RoseInGraph, ue2::RoseInVertexProps, ue2::RoseInEdgeProps>::edge_node, boost::intrusive::list_node_traits<void *>, boost::intrusive::safe_link, ue2::ue2_graph<ue2::RoseInGraph, ue2::RoseInVertexProps, ue2::RoseInEdgeProps>::out_edge_tag, 1>, unsigned long, true, void>::root_plus_size" }
%"struct.boost::intrusive::list_impl<boost::intrusive::bhtraits<ue2::ue2_graph<ue2::RoseInGraph, ue2::RoseInVertexProps, ue2::RoseInEdgeProps>::edge_node, boost::intrusive::list_node_traits<void *>, boost::intrusive::safe_link, ue2::ue2_graph<ue2::RoseInGraph, ue2::RoseInVertexProps, ue2::RoseInEdgeProps>::out_edge_tag, 1>, unsigned long, true, void>::root_plus_size" = type { %"struct.boost::intrusive::detail::size_holder", %"struct.boost::intrusive::detail::default_header_holder" }

; Function Attrs: mustprogress nounwind uwtable
define linkonce_odr hidden void @_ZN3ue212graph_detail17vertex_descriptorINS_9ue2_graphINS_11RoseInGraphENS_17RoseInVertexPropsENS_15RoseInEdgePropsEEEEC2EPNS6_11vertex_nodeE(ptr noundef nonnull align 8 dereferenceable(16) %0, ptr noundef %1) unnamed_addr #1 comdat align 2 {
  %3 = alloca ptr, align 8
  %4 = alloca ptr, align 8
  store ptr %0, ptr %3, align 8
  store ptr %1, ptr %4, align 8
  %5 = load ptr, ptr %3, align 8
  %6 = getelementptr inbounds nuw %"class.ue2::graph_detail::vertex_descriptor.69", ptr %5, i32 0, i32 0
  %7 = load ptr, ptr %4, align 8
  store ptr %7, ptr %6, align 8
  %8 = getelementptr inbounds nuw %"class.ue2::graph_detail::vertex_descriptor.69", ptr %5, i32 0, i32 1
  %9 = load ptr, ptr %4, align 8
  %10 = getelementptr inbounds nuw %"struct.ue2::ue2_graph<ue2::RoseInGraph, ue2::RoseInVertexProps, ue2::RoseInEdgeProps>::vertex_node", ptr %9, i32 0, i32 2
  %11 = load i64, ptr %10, align 8
  store i64 %11, ptr %8, align 8
  ret void
}

; Function Attrs: mustprogress nounwind uwtable
define linkonce_odr hidden noundef ptr @_ZN3ue212graph_detail15edge_descriptorINS_9ue2_graphINS_11RoseInGraphENS_17RoseInVertexPropsENS_15RoseInEdgePropsEEEE3rawEv(ptr noundef nonnull align 8 dereferenceable(16) %0) #1 comdat align 2 {
  %2 = alloca ptr, align 8
  store ptr %0, ptr %2, align 8
  %3 = load ptr, ptr %2, align 8
  %4 = getelementptr inbounds nuw %"class.ue2::graph_detail::edge_descriptor", ptr %3, i32 0, i32 0
  %5 = load ptr, ptr %4, align 8
  ret ptr %5
}

; Function Attrs: mustprogress nounwind uwtable
define linkonce_odr hidden noundef ptr @_ZN3ue212graph_detail17vertex_descriptorINS_9ue2_graphINS_11RoseInGraphENS_17RoseInVertexPropsENS_15RoseInEdgePropsEEEE3rawEv(ptr noundef nonnull align 8 dereferenceable(16) %0) #1 comdat align 2 {
  %2 = alloca ptr, align 8
  store ptr %0, ptr %2, align 8
  %3 = load ptr, ptr %2, align 8
  %4 = getelementptr inbounds nuw %"class.ue2::graph_detail::vertex_descriptor.69", ptr %3, i32 0, i32 0
  %5 = load ptr, ptr %4, align 8
  ret ptr %5
}

; Function Attrs: mustprogress uwtable
define linkonce_odr hidden { ptr, i64 } @_ZN3ue29ue2_graphINS_11RoseInGraphENS_17RoseInVertexPropsENS_15RoseInEdgePropsEE11target_implENS_12graph_detail15edge_descriptorIS4_EE(ptr %0, i64 %1) #3 comdat align 2 {
  %3 = alloca %"class.ue2::graph_detail::vertex_descriptor.69", align 8
  %4 = alloca %"class.ue2::graph_detail::edge_descriptor", align 8
  %5 = getelementptr inbounds nuw { ptr, i64 }, ptr %4, i32 0, i32 0
  store ptr %0, ptr %5, align 8
  %6 = getelementptr inbounds nuw { ptr, i64 }, ptr %4, i32 0, i32 1
  store i64 %1, ptr %6, align 8
  %7 = call noundef ptr @_ZN3ue212graph_detail15edge_descriptorINS_9ue2_graphINS_11RoseInGraphENS_17RoseInVertexPropsENS_15RoseInEdgePropsEEEE3rawEv(ptr noundef nonnull align 8 dereferenceable(16) %4)
  %8 = getelementptr inbounds nuw %"struct.ue2::ue2_graph<ue2::RoseInGraph, ue2::RoseInVertexProps, ue2::RoseInEdgeProps>::edge_node", ptr %7, i32 0, i32 3
  %9 = load ptr, ptr %8, align 8
  call void @_ZN3ue212graph_detail17vertex_descriptorINS_9ue2_graphINS_11RoseInGraphENS_17RoseInVertexPropsENS_15RoseInEdgePropsEEEEC2EPNS6_11vertex_nodeE(ptr noundef nonnull align 8 dereferenceable(16) %3, ptr noundef %9)
  %10 = load { ptr, i64 }, ptr %3, align 8
  ret { ptr, i64 } %10
}

; Function Attrs: mustprogress uwtable
define linkonce_odr hidden { ptr, i64 } @_ZN3ue29ue2_graphINS_11RoseInGraphENS_17RoseInVertexPropsENS_15RoseInEdgePropsEE11source_implENS_12graph_detail15edge_descriptorIS4_EE(ptr %0, i64 %1) #3 comdat align 2 {
  %3 = alloca %"class.ue2::graph_detail::vertex_descriptor.69", align 8
  %4 = alloca %"class.ue2::graph_detail::edge_descriptor", align 8
  %5 = getelementptr inbounds nuw { ptr, i64 }, ptr %4, i32 0, i32 0
  store ptr %0, ptr %5, align 8
  %6 = getelementptr inbounds nuw { ptr, i64 }, ptr %4, i32 0, i32 1
  store i64 %1, ptr %6, align 8
  %7 = call noundef ptr @_ZN3ue212graph_detail15edge_descriptorINS_9ue2_graphINS_11RoseInGraphENS_17RoseInVertexPropsENS_15RoseInEdgePropsEEEE3rawEv(ptr noundef nonnull align 8 dereferenceable(16) %4)
  %8 = getelementptr inbounds nuw %"struct.ue2::ue2_graph<ue2::RoseInGraph, ue2::RoseInVertexProps, ue2::RoseInEdgeProps>::edge_node", ptr %7, i32 0, i32 2
  %9 = load ptr, ptr %8, align 8
  call void @_ZN3ue212graph_detail17vertex_descriptorINS_9ue2_graphINS_11RoseInGraphENS_17RoseInVertexPropsENS_15RoseInEdgePropsEEEEC2EPNS6_11vertex_nodeE(ptr noundef nonnull align 8 dereferenceable(16) %3, ptr noundef %9)
  %10 = load { ptr, i64 }, ptr %3, align 8
  ret { ptr, i64 } %10
}

; Function Attrs: mustprogress uwtable
define linkonce_odr hidden noundef nonnull align 8 dereferenceable(128) ptr @_ZNK3ue29ue2_graphINS_11RoseInGraphENS_17RoseInVertexPropsENS_15RoseInEdgePropsEEixENS_12graph_detail17vertex_descriptorIS4_EE(ptr noundef nonnull align 8 dereferenceable(56) %0, ptr %1, i64 %2) #3 comdat align 2 {
  %4 = alloca %"class.ue2::graph_detail::vertex_descriptor.69", align 8
  %5 = alloca ptr, align 8
  %6 = getelementptr inbounds nuw { ptr, i64 }, ptr %4, i32 0, i32 0
  store ptr %1, ptr %6, align 8
  %7 = getelementptr inbounds nuw { ptr, i64 }, ptr %4, i32 0, i32 1
  store i64 %2, ptr %7, align 8
  store ptr %0, ptr %5, align 8
  %8 = call noundef ptr @_ZN3ue212graph_detail17vertex_descriptorINS_9ue2_graphINS_11RoseInGraphENS_17RoseInVertexPropsENS_15RoseInEdgePropsEEEE3rawEv(ptr noundef nonnull align 8 dereferenceable(16) %4)
  %9 = getelementptr inbounds nuw %"struct.ue2::ue2_graph<ue2::RoseInGraph, ue2::RoseInVertexProps, ue2::RoseInEdgeProps>::vertex_node", ptr %8, i32 0, i32 1
  ret ptr %9
}

; Function Attrs: mustprogress uwtable
define linkonce_odr hidden { ptr, i64 } @_ZN3ue26targetINS_11RoseInGraphEEENSt9enable_ifIXsr12is_ue2_graphIT_EE5valueENS3_17vertex_descriptorEE4typeENS3_15edge_descriptorERKS3_(ptr %0, i64 %1, ptr noundef nonnull align 8 dereferenceable(56) %2) #3 comdat {
  %4 = alloca %"class.ue2::graph_detail::vertex_descriptor.69", align 8
  %5 = alloca %"class.ue2::graph_detail::edge_descriptor", align 8
  %6 = alloca ptr, align 8
  %7 = alloca %"class.ue2::graph_detail::edge_descriptor", align 8
  %8 = getelementptr inbounds nuw { ptr, i64 }, ptr %5, i32 0, i32 0
  store ptr %0, ptr %8, align 8
  %9 = getelementptr inbounds nuw { ptr, i64 }, ptr %5, i32 0, i32 1
  store i64 %1, ptr %9, align 8
  store ptr %2, ptr %6, align 8
  call void @llvm.memcpy.p0.p0.i64(ptr align 8 %7, ptr align 8 %5, i64 16, i1 false)
  %10 = getelementptr inbounds nuw { ptr, i64 }, ptr %7, i32 0, i32 0
  %11 = load ptr, ptr %10, align 8
  %12 = getelementptr inbounds nuw { ptr, i64 }, ptr %7, i32 0, i32 1
  %13 = load i64, ptr %12, align 8
  %14 = call { ptr, i64 } @_ZN3ue29ue2_graphINS_11RoseInGraphENS_17RoseInVertexPropsENS_15RoseInEdgePropsEE11target_implENS_12graph_detail15edge_descriptorIS4_EE(ptr %11, i64 %13)
  %15 = getelementptr inbounds nuw { ptr, i64 }, ptr %4, i32 0, i32 0
  %16 = extractvalue { ptr, i64 } %14, 0
  store ptr %16, ptr %15, align 8
  %17 = getelementptr inbounds nuw { ptr, i64 }, ptr %4, i32 0, i32 1
  %18 = extractvalue { ptr, i64 } %14, 1
  store i64 %18, ptr %17, align 8
  %19 = load { ptr, i64 }, ptr %4, align 8
  ret { ptr, i64 } %19
}

; Function Attrs: mustprogress uwtable
define linkonce_odr hidden { ptr, i64 } @_ZN3ue26sourceINS_11RoseInGraphEEENSt9enable_ifIXsr12is_ue2_graphIT_EE5valueENS3_17vertex_descriptorEE4typeENS3_15edge_descriptorERKS3_(ptr %0, i64 %1, ptr noundef nonnull align 8 dereferenceable(56) %2) #3 comdat {
  %4 = alloca %"class.ue2::graph_detail::vertex_descriptor.69", align 8
  %5 = alloca %"class.ue2::graph_detail::edge_descriptor", align 8
  %6 = alloca ptr, align 8
  %7 = alloca %"class.ue2::graph_detail::edge_descriptor", align 8
  %8 = getelementptr inbounds nuw { ptr, i64 }, ptr %5, i32 0, i32 0
  store ptr %0, ptr %8, align 8
  %9 = getelementptr inbounds nuw { ptr, i64 }, ptr %5, i32 0, i32 1
  store i64 %1, ptr %9, align 8
  store ptr %2, ptr %6, align 8
  call void @llvm.memcpy.p0.p0.i64(ptr align 8 %7, ptr align 8 %5, i64 16, i1 false)
  %10 = getelementptr inbounds nuw { ptr, i64 }, ptr %7, i32 0, i32 0
  %11 = load ptr, ptr %10, align 8
  %12 = getelementptr inbounds nuw { ptr, i64 }, ptr %7, i32 0, i32 1
  %13 = load i64, ptr %12, align 8
  %14 = call { ptr, i64 } @_ZN3ue29ue2_graphINS_11RoseInGraphENS_17RoseInVertexPropsENS_15RoseInEdgePropsEE11source_implENS_12graph_detail15edge_descriptorIS4_EE(ptr %11, i64 %13)
  %15 = getelementptr inbounds nuw { ptr, i64 }, ptr %4, i32 0, i32 0
  %16 = extractvalue { ptr, i64 } %14, 0
  store ptr %16, ptr %15, align 8
  %17 = getelementptr inbounds nuw { ptr, i64 }, ptr %4, i32 0, i32 1
  %18 = extractvalue { ptr, i64 } %14, 1
  store i64 %18, ptr %17, align 8
  %19 = load { ptr, i64 }, ptr %4, align 8
  ret { ptr, i64 } %19
}

; Function Attrs: mustprogress uwtable
define hidden noundef i32 @_ZN3ue214whatRoseIsThisERKNS_11RoseInGraphERKNS_12graph_detail15edge_descriptorINS_9ue2_graphIS0_NS_17RoseInVertexPropsENS_15RoseInEdgePropsEEEEE(ptr noundef nonnull align 8 dereferenceable(56) %0, ptr noundef nonnull align 8 dereferenceable(16) %1) #3 {
  %3 = alloca i32, align 4
  %4 = alloca ptr, align 8
  %5 = alloca ptr, align 8
  %6 = alloca %"class.ue2::graph_detail::vertex_descriptor.69", align 8
  %7 = alloca %"class.ue2::graph_detail::edge_descriptor", align 8
  %8 = alloca %"class.ue2::graph_detail::vertex_descriptor.69", align 8
  %9 = alloca %"class.ue2::graph_detail::edge_descriptor", align 8
  %10 = alloca i8, align 1
  %11 = alloca %"class.ue2::graph_detail::vertex_descriptor.69", align 8
  %12 = alloca %"class.ue2::graph_detail::vertex_descriptor.69", align 8
  %13 = alloca i8, align 1
  %14 = alloca %"class.ue2::graph_detail::vertex_descriptor.69", align 8
  %15 = alloca %"class.ue2::graph_detail::vertex_descriptor.69", align 8
  %16 = alloca i32, align 4
  store ptr %0, ptr %4, align 8
  store ptr %1, ptr %5, align 8
  call void @llvm.lifetime.start.p0(i64 16, ptr %6) #25
  %17 = load ptr, ptr %5, align 8
  call void @llvm.memcpy.p0.p0.i64(ptr align 8 %7, ptr align 8 %17, i64 16, i1 false)
  %18 = load ptr, ptr %4, align 8
  %19 = getelementptr inbounds nuw { ptr, i64 }, ptr %7, i32 0, i32 0
  %20 = load ptr, ptr %19, align 8
  %21 = getelementptr inbounds nuw { ptr, i64 }, ptr %7, i32 0, i32 1
  %22 = load i64, ptr %21, align 8
  %23 = call { ptr, i64 } @_ZN3ue26sourceINS_11RoseInGraphEEENSt9enable_ifIXsr12is_ue2_graphIT_EE5valueENS3_17vertex_descriptorEE4typeENS3_15edge_descriptorERKS3_(ptr %20, i64 %22, ptr noundef nonnull align 8 dereferenceable(56) %18)
  %24 = getelementptr inbounds nuw { ptr, i64 }, ptr %6, i32 0, i32 0
  %25 = extractvalue { ptr, i64 } %23, 0
  store ptr %25, ptr %24, align 8
  %26 = getelementptr inbounds nuw { ptr, i64 }, ptr %6, i32 0, i32 1
  %27 = extractvalue { ptr, i64 } %23, 1
  store i64 %27, ptr %26, align 8
  call void @llvm.lifetime.start.p0(i64 16, ptr %8) #25
  %28 = load ptr, ptr %5, align 8
  call void @llvm.memcpy.p0.p0.i64(ptr align 8 %9, ptr align 8 %28, i64 16, i1 false)
  %29 = load ptr, ptr %4, align 8
  %30 = getelementptr inbounds nuw { ptr, i64 }, ptr %9, i32 0, i32 0
  %31 = load ptr, ptr %30, align 8
  %32 = getelementptr inbounds nuw { ptr, i64 }, ptr %9, i32 0, i32 1
  %33 = load i64, ptr %32, align 8
  %34 = call { ptr, i64 } @_ZN3ue26targetINS_11RoseInGraphEEENSt9enable_ifIXsr12is_ue2_graphIT_EE5valueENS3_17vertex_descriptorEE4typeENS3_15edge_descriptorERKS3_(ptr %31, i64 %33, ptr noundef nonnull align 8 dereferenceable(56) %29)
  %35 = getelementptr inbounds nuw { ptr, i64 }, ptr %8, i32 0, i32 0
  %36 = extractvalue { ptr, i64 } %34, 0
  store ptr %36, ptr %35, align 8
  %37 = getelementptr inbounds nuw { ptr, i64 }, ptr %8, i32 0, i32 1
  %38 = extractvalue { ptr, i64 } %34, 1
  store i64 %38, ptr %37, align 8
  call void @llvm.lifetime.start.p0(i64 1, ptr %10) #25
  %39 = load ptr, ptr %4, align 8
  call void @llvm.memcpy.p0.p0.i64(ptr align 8 %11, ptr align 8 %6, i64 16, i1 false)
  %40 = getelementptr inbounds nuw { ptr, i64 }, ptr %11, i32 0, i32 0
  %41 = load ptr, ptr %40, align 8
  %42 = getelementptr inbounds nuw { ptr, i64 }, ptr %11, i32 0, i32 1
  %43 = load i64, ptr %42, align 8
  %44 = call noundef nonnull align 8 dereferenceable(128) ptr @_ZNK3ue29ue2_graphINS_11RoseInGraphENS_17RoseInVertexPropsENS_15RoseInEdgePropsEEixENS_12graph_detail17vertex_descriptorIS4_EE(ptr noundef nonnull align 8 dereferenceable(56) %39, ptr %41, i64 %43)
  %45 = getelementptr inbounds nuw %"struct.ue2::RoseInVertexProps", ptr %44, i32 0, i32 0
  %46 = load i32, ptr %45, align 8
  %47 = icmp eq i32 %46, 1
  br i1 %47, label %58, label %48

48:                                               ; preds = %2
  %49 = load ptr, ptr %4, align 8
  call void @llvm.memcpy.p0.p0.i64(ptr align 8 %12, ptr align 8 %6, i64 16, i1 false)
  %50 = getelementptr inbounds nuw { ptr, i64 }, ptr %12, i32 0, i32 0
  %51 = load ptr, ptr %50, align 8
  %52 = getelementptr inbounds nuw { ptr, i64 }, ptr %12, i32 0, i32 1
  %53 = load i64, ptr %52, align 8
  %54 = call noundef nonnull align 8 dereferenceable(128) ptr @_ZNK3ue29ue2_graphINS_11RoseInGraphENS_17RoseInVertexPropsENS_15RoseInEdgePropsEEixENS_12graph_detail17vertex_descriptorIS4_EE(ptr noundef nonnull align 8 dereferenceable(56) %49, ptr %51, i64 %53)
  %55 = getelementptr inbounds nuw %"struct.ue2::RoseInVertexProps", ptr %54, i32 0, i32 0
  %56 = load i32, ptr %55, align 8
  %57 = icmp eq i32 %56, 2
  br label %58

58:                                               ; preds = %48, %2
  %59 = phi i1 [ true, %2 ], [ %57, %48 ]
  %60 = zext i1 %59 to i8
  store i8 %60, ptr %10, align 1
  call void @llvm.lifetime.start.p0(i64 1, ptr %13) #25
  %61 = load ptr, ptr %4, align 8
  call void @llvm.memcpy.p0.p0.i64(ptr align 8 %14, ptr align 8 %8, i64 16, i1 false)
  %62 = getelementptr inbounds nuw { ptr, i64 }, ptr %14, i32 0, i32 0
  %63 = load ptr, ptr %62, align 8
  %64 = getelementptr inbounds nuw { ptr, i64 }, ptr %14, i32 0, i32 1
  %65 = load i64, ptr %64, align 8
  %66 = call noundef nonnull align 8 dereferenceable(128) ptr @_ZNK3ue29ue2_graphINS_11RoseInGraphENS_17RoseInVertexPropsENS_15RoseInEdgePropsEEixENS_12graph_detail17vertex_descriptorIS4_EE(ptr noundef nonnull align 8 dereferenceable(56) %61, ptr %63, i64 %65)
  %67 = getelementptr inbounds nuw %"struct.ue2::RoseInVertexProps", ptr %66, i32 0, i32 0
  %68 = load i32, ptr %67, align 8
  %69 = icmp eq i32 %68, 3
  br i1 %69, label %80, label %70

70:                                               ; preds = %58
  %71 = load ptr, ptr %4, align 8
  call void @llvm.memcpy.p0.p0.i64(ptr align 8 %15, ptr align 8 %8, i64 16, i1 false)
  %72 = getelementptr inbounds nuw { ptr, i64 }, ptr %15, i32 0, i32 0
  %73 = load ptr, ptr %72, align 8
  %74 = getelementptr inbounds nuw { ptr, i64 }, ptr %15, i32 0, i32 1
  %75 = load i64, ptr %74, align 8
  %76 = call noundef nonnull align 8 dereferenceable(128) ptr @_ZNK3ue29ue2_graphINS_11RoseInGraphENS_17RoseInVertexPropsENS_15RoseInEdgePropsEEixENS_12graph_detail17vertex_descriptorIS4_EE(ptr noundef nonnull align 8 dereferenceable(56) %71, ptr %73, i64 %75)
  %77 = getelementptr inbounds nuw %"struct.ue2::RoseInVertexProps", ptr %76, i32 0, i32 0
  %78 = load i32, ptr %77, align 8
  %79 = icmp eq i32 %78, 4
  br label %80

80:                                               ; preds = %70, %58
  %81 = phi i1 [ true, %58 ], [ %79, %70 ]
  %82 = zext i1 %81 to i8
  store i8 %82, ptr %13, align 1
  %83 = load i8, ptr %10, align 1, !range !5, !noundef !6
  %84 = trunc i8 %83 to i1
  br i1 %84, label %85, label %89

85:                                               ; preds = %80
  %86 = load i8, ptr %13, align 1, !range !5, !noundef !6
  %87 = trunc i8 %86 to i1
  br i1 %87, label %89, label %88

88:                                               ; preds = %85
  store i32 0, ptr %3, align 4
  store i32 1, ptr %16, align 4
  br label %104

89:                                               ; preds = %85, %80
  %90 = load i8, ptr %10, align 1, !range !5, !noundef !6
  %91 = trunc i8 %90 to i1
  br i1 %91, label %96, label %92

92:                                               ; preds = %89
  %93 = load i8, ptr %13, align 1, !range !5, !noundef !6
  %94 = trunc i8 %93 to i1
  br i1 %94, label %95, label %96

95:                                               ; preds = %92
  store i32 2, ptr %3, align 4
  store i32 1, ptr %16, align 4
  br label %104

96:                                               ; preds = %92, %89
  %97 = load i8, ptr %10, align 1, !range !5, !noundef !6
  %98 = trunc i8 %97 to i1
  br i1 %98, label %103, label %99

99:                                               ; preds = %96
  %100 = load i8, ptr %13, align 1, !range !5, !noundef !6
  %101 = trunc i8 %100 to i1
  br i1 %101, label %103, label %102

102:                                              ; preds = %99
  store i32 1, ptr %3, align 4
  store i32 1, ptr %16, align 4
  br label %104

103:                                              ; preds = %99, %96
  store i32 3, ptr %3, align 4
  store i32 1, ptr %16, align 4
  br label %104

104:                                              ; preds = %103, %102, %95, %88
  call void @llvm.lifetime.end.p0(i64 1, ptr %13) #25
  call void @llvm.lifetime.end.p0(i64 1, ptr %10) #25
  call void @llvm.lifetime.end.p0(i64 16, ptr %8) #25
  call void @llvm.lifetime.end.p0(i64 16, ptr %6) #25
  %105 = load i32, ptr %3, align 4
  ret i32 %105
}